target datalayout = "e-m:e-p270:32:32-p271:32:32-p272:64:64-i64:64-i128:128-f80:128-n8:16:32:64-S128"
target triple = "x86_64-pc-linux-gnu"

%struct.evp_rand_ctx_st = type { ptr, ptr, ptr, %struct.CRYPTO_REF_COUNT, ptr }
%struct.CRYPTO_REF_COUNT = type { i32 }
%struct.evp_rand_st = type { ptr, i32, ptr, ptr, %struct.CRYPTO_REF_COUNT, ptr, ptr, ptr, ptr, ptr, ptr, ptr, ptr, ptr, ptr, ptr, ptr, ptr, ptr, ptr, ptr, ptr, ptr, ptr, ptr }
%struct.ossl_param_st = type { ptr, i32, ptr, i64, i64 }

@.str.3 = private unnamed_addr constant [9 x i8] c"strength\00", align 1

; Function Attrs: nounwind uwtable
define internal i32 @evp_rand_get_ctx_params_locked(ptr noundef %0, ptr noundef %1) #0 {
  %3 = alloca ptr, align 8
  %4 = alloca ptr, align 8
  store ptr %0, ptr %3, align 8, !tbaa !3
  store ptr %1, ptr %4, align 8, !tbaa !59
  %5 = load ptr, ptr %3, align 8, !tbaa !3
  %6 = getelementptr inbounds nuw %struct.evp_rand_ctx_st, ptr %5, i32 0, i32 0
  %7 = load ptr, ptr %6, align 8, !tbaa !8
  %8 = getelementptr inbounds nuw %struct.evp_rand_st, ptr %7, i32 0, i32 20
  %9 = load ptr, ptr %8, align 8, !tbaa !50
  %10 = load ptr, ptr %3, align 8, !tbaa !3
  %11 = getelementptr inbounds nuw %struct.evp_rand_ctx_st, ptr %10, i32 0, i32 1
  %12 = load ptr, ptr %11, align 8, !tbaa !18
  %13 = load ptr, ptr %4, align 8, !tbaa !59
  %14 = call i32 %9(ptr noundef %12, ptr noundef %13)
  ret i32 %14
}

; Function Attrs: nounwind uwtable
define internal i32 @evp_rand_strength_locked(ptr noundef %0) #0 {
  %2 = alloca i32, align 4
  %3 = alloca ptr, align 8
  %4 = alloca [2 x %struct.ossl_param_st], align 16
  %5 = alloca i32, align 4
  %6 = alloca %struct.ossl_param_st, align 8
  %7 = alloca i32, align 4
  store ptr %0, ptr %3, align 8, !tbaa !3
  call void @llvm.lifetime.start.p0(i64 80, ptr %4) #6
  call void @llvm.memset.p0.i64(ptr align 16 %4, i8 0, i64 80, i1 false)
  call void @llvm.lifetime.start.p0(i64 4, ptr %5) #6
  store i32 0, ptr %5, align 4, !tbaa !22
  %8 = getelementptr inbounds [2 x %struct.ossl_param_st], ptr %4, i64 0, i64 0
  call void @llvm.lifetime.start.p0(i64 40, ptr %6) #6
  call void @OSSL_PARAM_construct_uint(ptr dead_on_unwind writable sret(%struct.ossl_param_st) align 8 %6, ptr noundef @.str.3, ptr noundef %5)
  call void @llvm.memcpy.p0.p0.i64(ptr align 16 %8, ptr align 8 %6, i64 40, i1 false), !tbaa.struct !67
  call void @llvm.lifetime.end.p0(i64 40, ptr %6) #6
  %9 = load ptr, ptr %3, align 8, !tbaa !3
  %10 = getelementptr inbounds [2 x %struct.ossl_param_st], ptr %4, i64 0, i64 0
  %11 = call i32 @evp_rand_get_ctx_params_locked(ptr noundef %9, ptr noundef %10)
  %12 = icmp ne i32 %11, 0
  br i1 %12, label %14, label %13

13:                                               ; preds = %1
  store i32 0, ptr %2, align 4
  store i32 1, ptr %7, align 4
  br label %16

14:                                               ; preds = %1
  %15 = load i32, ptr %5, align 4, !tbaa !22
  store i32 %15, ptr %2, align 4
  store i32 1, ptr %7, align 4
  br label %16

16:                                               ; preds = %14, %13
  call void @llvm.lifetime.end.p0(i64 4, ptr %5) #6
  call void @llvm.lifetime.end.p0(i64 80, ptr %4) #6
  %17 = load i32, ptr %2, align 4
  ret i32 %17
}

; Function Attrs: nounwind uwtable
define internal void @evp_rand_unlock(ptr noundef %0) #0 {
  %2 = alloca ptr, align 8
  store ptr %0, ptr %2, align 8, !tbaa !3
  %3 = load ptr, ptr %2, align 8, !tbaa !3
  %4 = getelementptr inbounds nuw %struct.evp_rand_ctx_st, ptr %3, i32 0, i32 0
  %5 = load ptr, ptr %4, align 8, !tbaa !8
  %6 = getelementptr inbounds nuw %struct.evp_rand_st, ptr %5, i32 0, i32 15
  %7 = load ptr, ptr %6, align 8, !tbaa !45
  %8 = icmp ne ptr %7, null
  br i1 %8, label %9, label %18

9:                                                ; preds = %1
  %10 = load ptr, ptr %2, align 8, !tbaa !3
  %11 = getelementptr inbounds nuw %struct.evp_rand_ctx_st, ptr %10, i32 0, i32 0
  %12 = load ptr, ptr %11, align 8, !tbaa !8
  %13 = getelementptr inbounds nuw %struct.evp_rand_st, ptr %12, i32 0, i32 15
  %14 = load ptr, ptr %13, align 8, !tbaa !45
  %15 = load ptr, ptr %2, align 8, !tbaa !3
  %16 = getelementptr inbounds nuw %struct.evp_rand_ctx_st, ptr %15, i32 0, i32 1
  %17 = load ptr, ptr %16, align 8, !tbaa !18
  call void %14(ptr noundef %17)
  br label %18

18:                                               ; preds = %9, %1
  ret void
}

; Function Attrs: nounwind uwtable
define internal i32 @evp_rand_nonce_locked(ptr noundef %0, ptr noundef %1, i64 noundef %2) #0 {
  %4 = alloca i32, align 4
  %5 = alloca ptr, align 8
  %6 = alloca ptr, align 8
  %7 = alloca i64, align 8
  %8 = alloca i32, align 4
  %9 = alloca i32, align 4
  store ptr %0, ptr %5, align 8, !tbaa !3
  store ptr %1, ptr %6, align 8, !tbaa !21
  store i64 %2, ptr %7, align 8, !tbaa !65
  call void @llvm.lifetime.start.p0(i64 4, ptr %8) #6
  %10 = load ptr, ptr %5, align 8, !tbaa !3
  %11 = call i32 @evp_rand_strength_locked(ptr noundef %10)
  store i32 %11, ptr %8, align 4, !tbaa !22
  %12 = load ptr, ptr %5, align 8, !tbaa !3
  %13 = getelementptr inbounds nuw %struct.evp_rand_ctx_st, ptr %12, i32 0, i32 0
  %14 = load ptr, ptr %13, align 8, !tbaa !8
  %15 = getelementptr inbounds nuw %struct.evp_rand_st, ptr %14, i32 0, i32 12
  %16 = load ptr, ptr %15, align 8, !tbaa !43
  %17 = icmp eq ptr %16, null
  br i1 %17, label %18, label %19

18:                                               ; preds = %3
  store i32 0, ptr %4, align 4
  store i32 1, ptr %9, align 4
  br label %41

19:                                               ; preds = %3
  %20 = load ptr, ptr %5, align 8, !tbaa !3
  %21 = getelementptr inbounds nuw %struct.evp_rand_ctx_st, ptr %20, i32 0, i32 0
  %22 = load ptr, ptr %21, align 8, !tbaa !8
  %23 = getelementptr inbounds nuw %struct.evp_rand_st, ptr %22, i32 0, i32 12
  %24 = load ptr, ptr %23, align 8, !tbaa !43
  %25 = load ptr, ptr %5, align 8, !tbaa !3
  %26 = getelementptr inbounds nuw %struct.evp_rand_ctx_st, ptr %25, i32 0, i32 1
  %27 = load ptr, ptr %26, align 8, !tbaa !18
  %28 = load ptr, ptr %6, align 8, !tbaa !21
  %29 = load i32, ptr %8, align 4, !tbaa !22
  %30 = load i64, ptr %7, align 8, !tbaa !65
  %31 = load i64, ptr %7, align 8, !tbaa !65
  %32 = call i64 %24(ptr noundef %27, ptr noundef %28, i32 noundef %29, i64 noundef %30, i64 noundef %31)
  %33 = icmp ne i64 %32, 0
  br i1 %33, label %34, label %35

34:                                               ; preds = %19
  store i32 1, ptr %4, align 4
  store i32 1, ptr %9, align 4
  br label %41

35:                                               ; preds = %19
  %36 = load ptr, ptr %5, align 8, !tbaa !3
  %37 = load ptr, ptr %6, align 8, !tbaa !21
  %38 = load i64, ptr %7, align 8, !tbaa !65
  %39 = load i32, ptr %8, align 4, !tbaa !22
  %40 = call i32 @evp_rand_generate_locked(ptr noundef %36, ptr noundef %37, i64 noundef %38, i32 noundef %39, i32 noundef 0, ptr noundef null, i64 noundef 0)
  store i32 %40, ptr %4, align 4
  store i32 1, ptr %9, align 4
  br label %41

41:                                               ; preds = %35, %34, %18
  call void @llvm.lifetime.end.p0(i64 4, ptr %8) #6
  %42 = load i32, ptr %4, align 4
  ret i32 %42
}

; Function Attrs: nounwind uwtable
define internal i32 @evp_rand_lock(ptr noundef %0) #0 {
  %2 = alloca i32, align 4
  %3 = alloca ptr, align 8
  store ptr %0, ptr %3, align 8, !tbaa !3
  %4 = load ptr, ptr %3, align 8, !tbaa !3
  %5 = getelementptr inbounds nuw %struct.evp_rand_ctx_st, ptr %4, i32 0, i32 0
  %6 = load ptr, ptr %5, align 8, !tbaa !8
  %7 = getelementptr inbounds nuw %struct.evp_rand_st, ptr %6, i32 0, i32 14
  %8 = load ptr, ptr %7, align 8, !tbaa !44
  %9 = icmp ne ptr %8, null
  br i1 %9, label %10, label %20

10:                                               ; preds = %1
  %11 = load ptr, ptr %3, align 8, !tbaa !3
  %12 = getelementptr inbounds nuw %struct.evp_rand_ctx_st, ptr %11, i32 0, i32 0
  %13 = load ptr, ptr %12, align 8, !tbaa !8
  %14 = getelementptr inbounds nuw %struct.evp_rand_st, ptr %13, i32 0, i32 14
  %15 = load ptr, ptr %14, align 8, !tbaa !44
  %16 = load ptr, ptr %3, align 8, !tbaa !3
  %17 = getelementptr inbounds nuw %struct.evp_rand_ctx_st, ptr %16, i32 0, i32 1
  %18 = load ptr, ptr %17, align 8, !tbaa !18
  %19 = call i32 %15(ptr noundef %18)
  store i32 %19, ptr %2, align 4
  br label %21

20:                                               ; preds = %1
  store i32 1, ptr %2, align 4
  br label %21

21:                                               ; preds = %20, %10
  %22 = load i32, ptr %2, align 4
  ret i32 %22
}

; Function Attrs: nounwind uwtable
define i32 @EVP_RAND_nonce(ptr noundef %0, ptr noundef %1, i64 noundef %2) #0 {
  %4 = alloca i32, align 4
  %5 = alloca ptr, align 8
  %6 = alloca ptr, align 8
  %7 = alloca i64, align 8
  %8 = alloca i32, align 4
  %9 = alloca i32, align 4
  store ptr %0, ptr %5, align 8, !tbaa !3
  store ptr %1, ptr %6, align 8, !tbaa !21
  store i64 %2, ptr %7, align 8, !tbaa !65
  call void @llvm.lifetime.start.p0(i64 4, ptr %8) #6
  %10 = load ptr, ptr %5, align 8, !tbaa !3
  %11 = call i32 @evp_rand_lock(ptr noundef %10)
  %12 = icmp ne i32 %11, 0
  br i1 %12, label %14, label %13

13:                                               ; preds = %3
  store i32 0, ptr %4, align 4
  store i32 1, ptr %9, align 4
  br label %21

14:                                               ; preds = %3
  %15 = load ptr, ptr %5, align 8, !tbaa !3
  %16 = load ptr, ptr %6, align 8, !tbaa !21
  %17 = load i64, ptr %7, align 8, !tbaa !65
  %18 = call i32 @evp_rand_nonce_locked(ptr noundef %15, ptr noundef %16, i64 noundef %17)
  store i32 %18, ptr %8, align 4, !tbaa !22
  %19 = load ptr, ptr %5, align 8, !tbaa !3
  call void @evp_rand_unlock(ptr noundef %19)
  %20 = load i32, ptr %8, align 4, !tbaa !22
  store i32 %20, ptr %4, align 4
  store i32 1, ptr %9, align 4
  br label %21

21:                                               ; preds = %14, %13
  call void @llvm.lifetime.end.p0(i64 4, ptr %8) #6
  %22 = load i32, ptr %4, align 4
  ret i32 %22
}