; Function Attrs: nounwind uwtable
define range(i32 0, 2) i32 @EVP_RAND_nonce(ptr noundef readonly captures(none) %0, ptr noundef %1, i64 noundef %2) local_unnamed_addr #0 {
  %4 = alloca [2 x %struct.ossl_param_st], align 16
  %5 = alloca i32, align 4
  %6 = load ptr, ptr %0, align 8, !tbaa !3
  %7 = getelementptr inbounds nuw i8, ptr %6, i64 112
  %8 = load ptr, ptr %7, align 8, !tbaa !37
  %.not.i = icmp eq ptr %8, null
  br i1 %.not.i, label %evp_rand_lock.exit.thread, label %evp_rand_lock.exit

evp_rand_lock.exit:                               ; preds = %3
  %9 = getelementptr inbounds nuw i8, ptr %0, i64 8
  %10 = load ptr, ptr %9, align 8, !tbaa !17
  %11 = tail call i32 %8(ptr noundef %10) #8
  %.not = icmp eq i32 %11, 0
  br i1 %.not, label %evp_rand_unlock.exit, label %evp_rand_lock.exit.thread

evp_rand_lock.exit.thread:                        ; preds = %3, %evp_rand_lock.exit
  call void @llvm.lifetime.start.p0(i64 80, ptr nonnull %4) #8
  call void @llvm.lifetime.start.p0(i64 4, ptr nonnull %5) #8
  store i32 0, ptr %5, align 4, !tbaa !54
  call void @OSSL_PARAM_construct_uint(ptr dead_on_unwind nonnull writable sret(%struct.ossl_param_st) align 8 %4, ptr noundef nonnull @.str.3, ptr noundef nonnull %5) #8
  %12 = getelementptr inbounds nuw i8, ptr %4, i64 40
  call void @llvm.memset.p0.i64(ptr noundef nonnull align 8 dereferenceable(40) %12, i8 0, i64 40, i1 false)
  %.val.i.i = load ptr, ptr %0, align 8, !tbaa !3
  %13 = getelementptr i8, ptr %0, i64 8
  %.val1.i.i = load ptr, ptr %13, align 8, !tbaa !17
  %14 = getelementptr i8, ptr %.val.i.i, i64 160
  %.val.val.i.i = load ptr, ptr %14, align 8, !tbaa !43
  %15 = call i32 %.val.val.i.i(ptr noundef %.val1.i.i, ptr noundef nonnull %4) #8
  %.not.i.i = icmp eq i32 %15, 0
  %16 = load i32, ptr %5, align 4
  %.0.i.i = select i1 %.not.i.i, i32 0, i32 %16
  call void @llvm.lifetime.end.p0(i64 4, ptr nonnull %5) #8
  call void @llvm.lifetime.end.p0(i64 80, ptr nonnull %4) #8
  %17 = load ptr, ptr %0, align 8, !tbaa !3
  %18 = getelementptr inbounds nuw i8, ptr %17, i64 96
  %19 = load ptr, ptr %18, align 8, !tbaa !36
  %20 = icmp eq ptr %19, null
  br i1 %20, label %evp_rand_nonce_locked.exit, label %21

21:                                               ; preds = %evp_rand_lock.exit.thread
  %22 = load ptr, ptr %13, align 8, !tbaa !17
  %23 = call i64 %19(ptr noundef %22, ptr noundef %1, i32 noundef %.0.i.i, i64 noundef %2, i64 noundef %2) #8
  %.not.i6 = icmp eq i64 %23, 0
  br i1 %.not.i6, label %24, label %evp_rand_nonce_locked.exit

24:                                               ; preds = %21
  %25 = call fastcc i32 @evp_rand_generate_locked(ptr noundef nonnull readonly %0, ptr noundef %1, i64 noundef %2, i32 noundef %.0.i.i, i32 noundef 0, ptr noundef null, i64 noundef 0)
  br label %evp_rand_nonce_locked.exit

evp_rand_nonce_locked.exit:                       ; preds = %evp_rand_lock.exit.thread, %21, %24
  %.0.i7 = phi i32 [ %25, %24 ], [ 0, %evp_rand_lock.exit.thread ], [ 1, %21 ]
  %26 = load ptr, ptr %0, align 8, !tbaa !3
  %27 = getelementptr inbounds nuw i8, ptr %26, i64 120
  %28 = load ptr, ptr %27, align 8, !tbaa !38
  %.not.i8 = icmp eq ptr %28, null
  br i1 %.not.i8, label %evp_rand_unlock.exit, label %29

29:                                               ; preds = %evp_rand_nonce_locked.exit
  %30 = load ptr, ptr %13, align 8, !tbaa !17
  call void %28(ptr noundef %30) #8
  br label %evp_rand_unlock.exit

evp_rand_unlock.exit:                             ; preds = %29, %evp_rand_nonce_locked.exit, %evp_rand_lock.exit
  %.0 = phi i32 [ 0, %evp_rand_lock.exit ], [ %.0.i7, %evp_rand_nonce_locked.exit ], [ %.0.i7, %29 ]
  ret i32 %.0
}